target datalayout = "e-m:e-p270:32:32-p271:32:32-p272:64:64-i64:64-i128:128-f80:128-n8:16:32:64-S128"
target triple = "x86_64-pc-linux-gnu"

%class.ZMarkThreadLocalStacks = type { ptr, [16 x ptr] }
%class.ZStack = type { i64, ptr, [15 x ptr] }

; Function Attrs: mustprogress nounwind uwtable
define linkonce_odr hidden noundef zeroext i1 @_ZNK6ZStackIPS_I15ZMarkStackEntryLm254EELm15EE7is_fullEv(ptr noundef nonnull align 8 dereferenceable(136) %0) #1 comdat align 2 {
  %2 = alloca ptr, align 8
  store ptr %0, ptr %2, align 8
  %3 = load ptr, ptr %2, align 8
  %4 = getelementptr inbounds %class.ZStack, ptr %3, i32 0, i32 0
  %5 = load i64, ptr %4, align 8
  %6 = icmp eq i64 %5, 15
  ret i1 %6
}

; Function Attrs: mustprogress nounwind uwtable
define linkonce_odr hidden noundef zeroext i1 @_ZN6ZStackIPS_I15ZMarkStackEntryLm254EELm15EE4pushES2_(ptr noundef nonnull align 8 dereferenceable(136) %0, ptr noundef %1) #1 comdat align 2 {
  %3 = alloca i1, align 1
  %4 = alloca ptr, align 8
  %5 = alloca ptr, align 8
  store ptr %0, ptr %4, align 8
  store ptr %1, ptr %5, align 8
  %6 = load ptr, ptr %4, align 8
  %7 = call noundef zeroext i1 @_ZNK6ZStackIPS_I15ZMarkStackEntryLm254EELm15EE7is_fullEv(ptr noundef nonnull align 8 dereferenceable(136) %6)
  br i1 %7, label %8, label %9

8:                                                ; preds = %2
  store i1 false, ptr %3, align 1
  br label %16

9:                                                ; preds = %2
  %10 = load ptr, ptr %5, align 8
  %11 = getelementptr inbounds %class.ZStack, ptr %6, i32 0, i32 2
  %12 = getelementptr inbounds %class.ZStack, ptr %6, i32 0, i32 0
  %13 = load i64, ptr %12, align 8
  %14 = add i64 %13, 1
  store i64 %14, ptr %12, align 8
  %15 = getelementptr inbounds [15 x ptr], ptr %11, i64 0, i64 %13
  store ptr %10, ptr %15, align 8
  store i1 true, ptr %3, align 1
  br label %16

16:                                               ; preds = %9, %8
  %17 = load i1, ptr %3, align 1
  ret i1 %17
}

; Function Attrs: mustprogress nounwind uwtable
define linkonce_odr hidden void @_ZN6ZStackIPS_I15ZMarkStackEntryLm254EELm15EEC2Ev(ptr noundef nonnull align 8 dereferenceable(136) %0) unnamed_addr #1 comdat align 2 {
  %2 = alloca ptr, align 8
  store ptr %0, ptr %2, align 8
  %3 = load ptr, ptr %2, align 8
  %4 = getelementptr inbounds %class.ZStack, ptr %3, i32 0, i32 0
  store i64 0, ptr %4, align 8
  %5 = getelementptr inbounds %class.ZStack, ptr %3, i32 0, i32 1
  store ptr null, ptr %5, align 8
  ret void
}

; Function Attrs: mustprogress nounwind uwtable
define hidden void @_ZN22ZMarkThreadLocalStacks10free_stackEP19ZMarkStackAllocatorP6ZStackI15ZMarkStackEntryLm254EE(ptr noundef nonnull align 8 dereferenceable(136) %0, ptr noundef %1, ptr noundef %2) #1 align 2 {
  %4 = alloca ptr, align 8
  %5 = alloca ptr, align 8
  %6 = alloca ptr, align 8
  store ptr %0, ptr %4, align 8
  store ptr %1, ptr %5, align 8
  store ptr %2, ptr %6, align 8
  %7 = load ptr, ptr %4, align 8
  br label %8

8:                                                ; preds = %21, %3
  %9 = getelementptr inbounds %class.ZMarkThreadLocalStacks, ptr %7, i32 0, i32 0
  %10 = load ptr, ptr %9, align 8
  %11 = icmp eq ptr %10, null
  br i1 %11, label %12, label %15

12:                                               ; preds = %8
  %13 = load ptr, ptr %6, align 8
  call void @_ZN6ZStackIPS_I15ZMarkStackEntryLm254EELm15EEC2Ev(ptr noundef nonnull align 8 dereferenceable(136) %13)
  %14 = getelementptr inbounds %class.ZMarkThreadLocalStacks, ptr %7, i32 0, i32 0
  store ptr %13, ptr %14, align 8
  br label %26

15:                                               ; preds = %8
  %16 = getelementptr inbounds %class.ZMarkThreadLocalStacks, ptr %7, i32 0, i32 0
  %17 = load ptr, ptr %16, align 8
  %18 = load ptr, ptr %6, align 8
  %19 = call noundef zeroext i1 @_ZN6ZStackIPS_I15ZMarkStackEntryLm254EELm15EE4pushES2_(ptr noundef nonnull align 8 dereferenceable(136) %17, ptr noundef %18)
  br i1 %19, label %20, label %21

20:                                               ; preds = %15
  br label %26

21:                                               ; preds = %15
  %22 = load ptr, ptr %5, align 8
  %23 = getelementptr inbounds %class.ZMarkThreadLocalStacks, ptr %7, i32 0, i32 0
  %24 = load ptr, ptr %23, align 8
  call void @_ZN19ZMarkStackAllocator13free_magazineEP6ZStackIPS0_I15ZMarkStackEntryLm254EELm15EE(ptr noundef nonnull align 64 dereferenceable(257) %22, ptr noundef %24)
  %25 = getelementptr inbounds %class.ZMarkThreadLocalStacks, ptr %7, i32 0, i32 0
  store ptr null, ptr %25, align 8
  br label %8, !llvm.loop !11

26:                                               ; preds = %20, %12
  ret void
}