; Function Attrs: mustprogress nounwind uwtable
define hidden void @_ZN22ZMarkThreadLocalStacks10free_stackEP19ZMarkStackAllocatorP6ZStackI15ZMarkStackEntryLm254EE(ptr nocapture noundef nonnull align 8 dereferenceable(136) %0, ptr noundef %1, ptr noundef %2) local_unnamed_addr #2 align 2 {
  %.pr = load ptr, ptr %0, align 8
  %4 = icmp eq ptr %.pr, null
  br i1 %4, label %6, label %.lr.ph.split.us

.lr.ph.split.us:                                  ; preds = %3
  %5 = load i64, ptr %.pr, align 8
  %.not.us = icmp eq i64 %5, 15
  br i1 %.not.us, label %_ZN6ZStackIPS_I15ZMarkStackEntryLm254EELm15EE4pushES2_.exit.us, label %_ZN6ZStackIPS_I15ZMarkStackEntryLm254EELm15EE4pushES2_.exit.thread

_ZN6ZStackIPS_I15ZMarkStackEntryLm254EELm15EE4pushES2_.exit.us: ; preds = %.lr.ph.split.us
  tail call void @_ZN19ZMarkStackAllocator13free_magazineEP6ZStackIPS0_I15ZMarkStackEntryLm254EELm15EE(ptr noundef nonnull align 64 dereferenceable(257) %1, ptr noundef nonnull %.pr) #11
  br label %6

6:                                                ; preds = %_ZN6ZStackIPS_I15ZMarkStackEntryLm254EELm15EE4pushES2_.exit.us, %3
  tail call void @llvm.memset.p0.i64(ptr noundef nonnull align 8 dereferenceable(16) %2, i8 0, i64 16, i1 false)
  br label %10

_ZN6ZStackIPS_I15ZMarkStackEntryLm254EELm15EE4pushES2_.exit.thread: ; preds = %.lr.ph.split.us
  %7 = getelementptr inbounds i8, ptr %.pr, i64 16
  %8 = add i64 %5, 1
  store i64 %8, ptr %.pr, align 8
  %9 = getelementptr inbounds [15 x ptr], ptr %7, i64 0, i64 %5
  br label %10

10:                                               ; preds = %_ZN6ZStackIPS_I15ZMarkStackEntryLm254EELm15EE4pushES2_.exit.thread, %6
  %.sink = phi ptr [ %9, %_ZN6ZStackIPS_I15ZMarkStackEntryLm254EELm15EE4pushES2_.exit.thread ], [ %0, %6 ]
  store ptr %2, ptr %.sink, align 8
  ret void
}